target datalayout = "e-m:e-p270:32:32-p271:32:32-p272:64:64-i64:64-i128:128-f80:128-n8:16:32:64-S128"
target triple = "x86_64-pc-linux-gnu"

@stderr = external global ptr, align 8
@.str.1 = private unnamed_addr constant [6 x i8] c"stdin\00", align 1
@.str.59 = private unnamed_addr constant [5 x i8] c".lz4\00", align 1
@.str.69 = private unnamed_addr constant [2 x i8] c"\0A\00", align 1
@.str.102 = private unnamed_addr constant [10 x i8] c"Usage : \0A\00", align 1
@.str.103 = private unnamed_addr constant [34 x i8] c"      %s [arg] [input] [output] \0A\00", align 1
@.str.104 = private unnamed_addr constant [23 x i8] c"input   : a filename \0A\00", align 1
@.str.105 = private unnamed_addr constant [70 x i8] c"          with no FILE, or when FILE is - or %s, read standard input\0A\00", align 1
@.str.106 = private unnamed_addr constant [14 x i8] c"Arguments : \0A\00", align 1
@.str.107 = private unnamed_addr constant [39 x i8] c" -1     : fast compression (default) \0A\00", align 1
@.str.108 = private unnamed_addr constant [39 x i8] c" -%2d    : slowest compression level \0A\00", align 1
@.str.109 = private unnamed_addr constant [52 x i8] c" -d     : decompression (default for %s extension)\0A\00", align 1
@.str.110 = private unnamed_addr constant [47 x i8] c" -f     : overwrite output without prompting \0A\00", align 1
@.str.111 = private unnamed_addr constant [48 x i8] c" -k     : preserve source files(s)  (default) \0A\00", align 1
@.str.112 = private unnamed_addr constant [66 x i8] c"--rm    : remove source file(s) after successful de/compression \0A\00", align 1
@.str.113 = private unnamed_addr constant [44 x i8] c" -h/-H  : display help/long help and exit \0A\00", align 1

; Function Attrs: nounwind uwtable
define internal i32 @usage(ptr noundef %0) #0 {
  %2 = alloca ptr, align 8
  store ptr %0, ptr %2, align 8, !tbaa !11
  %3 = load ptr, ptr @stderr, align 8, !tbaa !17
  %4 = call i32 (ptr, ptr, ...) @fprintf(ptr noundef %3, ptr noundef @.str.102) #12
  %5 = load ptr, ptr @stderr, align 8, !tbaa !17
  %6 = load ptr, ptr %2, align 8, !tbaa !11
  %7 = call i32 (ptr, ptr, ...) @fprintf(ptr noundef %5, ptr noundef @.str.103, ptr noundef %6) #12
  %8 = load ptr, ptr @stderr, align 8, !tbaa !17
  %9 = call i32 (ptr, ptr, ...) @fprintf(ptr noundef %8, ptr noundef @.str.69) #12
  %10 = load ptr, ptr @stderr, align 8, !tbaa !17
  %11 = call i32 (ptr, ptr, ...) @fprintf(ptr noundef %10, ptr noundef @.str.104) #12
  %12 = load ptr, ptr @stderr, align 8, !tbaa !17
  %13 = call i32 (ptr, ptr, ...) @fprintf(ptr noundef %12, ptr noundef @.str.105, ptr noundef @.str.1) #12
  %14 = load ptr, ptr @stderr, align 8, !tbaa !17
  %15 = call i32 (ptr, ptr, ...) @fprintf(ptr noundef %14, ptr noundef @.str.106) #12
  %16 = load ptr, ptr @stderr, align 8, !tbaa !17
  %17 = call i32 (ptr, ptr, ...) @fprintf(ptr noundef %16, ptr noundef @.str.107) #12
  %18 = load ptr, ptr @stderr, align 8, !tbaa !17
  %19 = call i32 (ptr, ptr, ...) @fprintf(ptr noundef %18, ptr noundef @.str.108, i32 noundef 12) #12
  %20 = load ptr, ptr @stderr, align 8, !tbaa !17
  %21 = call i32 (ptr, ptr, ...) @fprintf(ptr noundef %20, ptr noundef @.str.109, ptr noundef @.str.59) #12
  %22 = load ptr, ptr @stderr, align 8, !tbaa !17
  %23 = call i32 (ptr, ptr, ...) @fprintf(ptr noundef %22, ptr noundef @.str.110) #12
  %24 = load ptr, ptr @stderr, align 8, !tbaa !17
  %25 = call i32 (ptr, ptr, ...) @fprintf(ptr noundef %24, ptr noundef @.str.111) #12
  %26 = load ptr, ptr @stderr, align 8, !tbaa !17
  %27 = call i32 (ptr, ptr, ...) @fprintf(ptr noundef %26, ptr noundef @.str.112) #12
  %28 = load ptr, ptr @stderr, align 8, !tbaa !17
  %29 = call i32 (ptr, ptr, ...) @fprintf(ptr noundef %28, ptr noundef @.str.113) #12
  ret i32 0
}