; Function Attrs: cold nofree nounwind uwtable
define internal fastcc void @usage(ptr noundef %0) unnamed_addr #15 {
  %2 = load ptr, ptr @stderr, align 8, !tbaa !11
  %3 = tail call i64 @fwrite(ptr nonnull @.str.102, i64 9, i64 1, ptr %2) #26
  %4 = load ptr, ptr @stderr, align 8, !tbaa !11
  %5 = tail call i32 (ptr, ptr, ...) @fprintf(ptr noundef %4, ptr noundef nonnull @.str.103, ptr noundef %0) #23
  %6 = load ptr, ptr @stderr, align 8, !tbaa !11
  %fputc = tail call i32 @fputc(i32 10, ptr %6)
  %7 = load ptr, ptr @stderr, align 8, !tbaa !11
  %8 = tail call i64 @fwrite(ptr nonnull @.str.104, i64 22, i64 1, ptr %7) #26
  %9 = load ptr, ptr @stderr, align 8, !tbaa !11
  %10 = tail call i32 (ptr, ptr, ...) @fprintf(ptr noundef %9, ptr noundef nonnull @.str.105, ptr noundef nonnull @.str.1) #23
  %11 = load ptr, ptr @stderr, align 8, !tbaa !11
  %12 = tail call i64 @fwrite(ptr nonnull @.str.106, i64 13, i64 1, ptr %11) #26
  %13 = load ptr, ptr @stderr, align 8, !tbaa !11
  %14 = tail call i64 @fwrite(ptr nonnull @.str.107, i64 38, i64 1, ptr %13) #26
  %15 = load ptr, ptr @stderr, align 8, !tbaa !11
  %16 = tail call i32 (ptr, ptr, ...) @fprintf(ptr noundef %15, ptr noundef nonnull @.str.108, i32 noundef 12) #23
  %17 = load ptr, ptr @stderr, align 8, !tbaa !11
  %18 = tail call i32 (ptr, ptr, ...) @fprintf(ptr noundef %17, ptr noundef nonnull @.str.109, ptr noundef nonnull @.str.59) #23
  %19 = load ptr, ptr @stderr, align 8, !tbaa !11
  %20 = tail call i64 @fwrite(ptr nonnull @.str.110, i64 46, i64 1, ptr %19) #26
  %21 = load ptr, ptr @stderr, align 8, !tbaa !11
  %22 = tail call i64 @fwrite(ptr nonnull @.str.111, i64 47, i64 1, ptr %21) #26
  %23 = load ptr, ptr @stderr, align 8, !tbaa !11
  %24 = tail call i64 @fwrite(ptr nonnull @.str.112, i64 65, i64 1, ptr %23) #26
  %25 = load ptr, ptr @stderr, align 8, !tbaa !11
  %26 = tail call i64 @fwrite(ptr nonnull @.str.113, i64 43, i64 1, ptr %25) #26
  ret void
}